; Function Attrs: nounwind uwtable
define dso_local void @zzlNext(ptr noundef %0, ptr noundef captures(none) %1, ptr noundef captures(none) %2) local_unnamed_addr #0 {
  %4 = load ptr, ptr %1, align 8, !tbaa !9
  %.not = icmp eq ptr %4, null
  br i1 %.not, label %.critedge, label %5, !prof !40

5:                                                ; preds = %3
  %6 = load ptr, ptr %2, align 8, !tbaa !9
  %.not16 = icmp eq ptr %6, null
  br i1 %.not16, label %.critedge, label %7, !prof !40

.critedge:                                        ; preds = %3, %5
  tail call void @_serverAssert(ptr noundef nonnull @.str.4, ptr noundef nonnull @.str.1, i32 noundef 842) #18
  tail call void @abort() #19
  unreachable

7:                                                ; preds = %5
  %8 = tail call ptr @lpNext(ptr noundef %0, ptr noundef nonnull %6) #18
  %.not14 = icmp eq ptr %8, null
  br i1 %.not14, label %12, label %9

9:                                                ; preds = %7
  %10 = tail call ptr @lpNext(ptr noundef %0, ptr noundef nonnull %8) #18
  %.not15 = icmp eq ptr %10, null
  br i1 %.not15, label %11, label %12, !prof !40

11:                                               ; preds = %9
  tail call void @_serverAssert(ptr noundef nonnull @.str.5, ptr noundef nonnull @.str.1, i32 noundef 847) #18
  tail call void @abort() #19
  unreachable

12:                                               ; preds = %7, %9
  %.0 = phi ptr [ %10, %9 ], [ null, %7 ]
  store ptr %8, ptr %1, align 8, !tbaa !9
  store ptr %.0, ptr %2, align 8, !tbaa !9
  ret void
}